target datalayout = "e-m:e-p270:32:32-p271:32:32-p272:64:64-i64:64-i128:128-f80:128-n8:16:32:64-S128"
target triple = "x86_64-unknown-linux-gnu"

%"class.v8::Local" = type { %"class.v8::LocalBase" }
%"class.v8::LocalBase" = type { %"class.v8::IndirectHandleBase" }
%"class.v8::IndirectHandleBase" = type { ptr }
%"class.node::worker::Message" = type { %"class.node::MemoryRetainer", %"struct.node::MallocedBuffer", %"class.std::vector", %"class.std::vector", %"class.std::vector.0", %"class.std::vector.5", %"class.std::optional" }
%"class.node::MemoryRetainer" = type { ptr }
%"struct.node::MallocedBuffer" = type { ptr, i64 }
%"class.std::vector" = type { %"struct.std::_Vector_base" }
%"struct.std::_Vector_base" = type { %"struct.std::_Vector_base<std::shared_ptr<v8::BackingStore>, std::allocator<std::shared_ptr<v8::BackingStore>>>::_Vector_impl" }
%"struct.std::_Vector_base<std::shared_ptr<v8::BackingStore>, std::allocator<std::shared_ptr<v8::BackingStore>>>::_Vector_impl" = type { %"struct.std::_Vector_base<std::shared_ptr<v8::BackingStore>, std::allocator<std::shared_ptr<v8::BackingStore>>>::_Vector_impl_data" }
%"struct.std::_Vector_base<std::shared_ptr<v8::BackingStore>, std::allocator<std::shared_ptr<v8::BackingStore>>>::_Vector_impl_data" = type { ptr, ptr, ptr }
%"class.std::vector.0" = type { %"struct.std::_Vector_base.1" }
%"struct.std::_Vector_base.1" = type { %"struct.std::_Vector_base<std::unique_ptr<node::worker::TransferData>, std::allocator<std::unique_ptr<node::worker::TransferData>>>::_Vector_impl" }
%"struct.std::_Vector_base<std::unique_ptr<node::worker::TransferData>, std::allocator<std::unique_ptr<node::worker::TransferData>>>::_Vector_impl" = type { %"struct.std::_Vector_base<std::unique_ptr<node::worker::TransferData>, std::allocator<std::unique_ptr<node::worker::TransferData>>>::_Vector_impl_data" }
%"struct.std::_Vector_base<std::unique_ptr<node::worker::TransferData>, std::allocator<std::unique_ptr<node::worker::TransferData>>>::_Vector_impl_data" = type { ptr, ptr, ptr }
%"class.std::vector.5" = type { %"struct.std::_Vector_base.6" }
%"struct.std::_Vector_base.6" = type { %"struct.std::_Vector_base<v8::CompiledWasmModule, std::allocator<v8::CompiledWasmModule>>::_Vector_impl" }
%"struct.std::_Vector_base<v8::CompiledWasmModule, std::allocator<v8::CompiledWasmModule>>::_Vector_impl" = type { %"struct.std::_Vector_base<v8::CompiledWasmModule, std::allocator<v8::CompiledWasmModule>>::_Vector_impl_data" }
%"struct.std::_Vector_base<v8::CompiledWasmModule, std::allocator<v8::CompiledWasmModule>>::_Vector_impl_data" = type { ptr, ptr, ptr }
%"class.std::optional" = type { %"struct.std::_Optional_base" }
%"struct.std::_Optional_base" = type { %"struct.std::_Optional_payload" }
%"struct.std::_Optional_payload" = type { %"struct.std::_Optional_payload.base", [7 x i8] }
%"struct.std::_Optional_payload.base" = type { %"struct.std::_Optional_payload_base.base" }
%"struct.std::_Optional_payload_base.base" = type <{ %"union.std::_Optional_payload_base<v8::SharedValueConveyor>::_Storage", i8 }>
%"union.std::_Optional_payload_base<v8::SharedValueConveyor>::_Storage" = type { %"class.v8::SharedValueConveyor" }
%"class.v8::SharedValueConveyor" = type { %"class.std::unique_ptr" }
%"class.std::unique_ptr" = type { %"struct.std::__uniq_ptr_data" }
%"struct.std::__uniq_ptr_data" = type { %"class.std::__uniq_ptr_impl" }
%"class.std::__uniq_ptr_impl" = type { %"class.std::tuple" }
%"class.std::tuple" = type { %"struct.std::_Tuple_impl" }
%"struct.std::_Tuple_impl" = type { %"struct.std::_Head_base.12" }
%"struct.std::_Head_base.12" = type { ptr }
%"class.std::vector.280" = type { %"struct.std::_Vector_base.281" }
%"struct.std::_Vector_base.281" = type { %"struct.std::_Vector_base<node::BaseObjectPtrImpl<node::BaseObject, false>, std::allocator<node::BaseObjectPtrImpl<node::BaseObject, false>>>::_Vector_impl" }
%"struct.std::_Vector_base<node::BaseObjectPtrImpl<node::BaseObject, false>, std::allocator<node::BaseObjectPtrImpl<node::BaseObject, false>>>::_Vector_impl" = type { %"struct.std::_Vector_base<node::BaseObjectPtrImpl<node::BaseObject, false>, std::allocator<node::BaseObjectPtrImpl<node::BaseObject, false>>>::_Vector_impl_data" }
%"struct.std::_Vector_base<node::BaseObjectPtrImpl<node::BaseObject, false>, std::allocator<node::BaseObjectPtrImpl<node::BaseObject, false>>>::_Vector_impl_data" = type { ptr, ptr, ptr }
%"class.node::worker::(anonymous namespace)::SerializerDelegate" = type { %"class.v8::ValueSerializer::Delegate", ptr, ptr, %"class.v8::Local", ptr, %"class.std::vector.315", %"class.std::vector.280", i64 }
%"class.v8::ValueSerializer::Delegate" = type { ptr }
%"class.std::vector.315" = type { %"struct.std::_Vector_base.316" }
%"struct.std::_Vector_base.316" = type { %"struct.std::_Vector_base<v8::Global<v8::SharedArrayBuffer>, std::allocator<v8::Global<v8::SharedArrayBuffer>>>::_Vector_impl" }
%"struct.std::_Vector_base<v8::Global<v8::SharedArrayBuffer>, std::allocator<v8::Global<v8::SharedArrayBuffer>>>::_Vector_impl" = type { %"struct.std::_Vector_base<v8::Global<v8::SharedArrayBuffer>, std::allocator<v8::Global<v8::SharedArrayBuffer>>>::_Vector_impl_data" }
%"struct.std::_Vector_base<v8::Global<v8::SharedArrayBuffer>, std::allocator<v8::Global<v8::SharedArrayBuffer>>>::_Vector_impl_data" = type { ptr, ptr, ptr }
%"struct.std::_Optional_payload_base" = type <{ %"union.std::_Optional_payload_base<v8::SharedValueConveyor>::_Storage", i8, [7 x i8] }>

; Function Attrs: mustprogress nounwind uwtable
define linkonce_odr dso_local void @_ZSt10_ConstructIN2v819SharedValueConveyorEJS1_EEvPT_DpOT0_(ptr noundef %__p, ptr noundef nonnull align 8 dereferenceable(8) %__args) #4 comdat {
entry:
  %__p.addr = alloca ptr, align 8
  %__args.addr = alloca ptr, align 8
  store ptr %__p, ptr %__p.addr, align 8
  store ptr %__args, ptr %__args.addr, align 8
  %0 = load ptr, ptr %__p.addr, align 8
  %1 = load ptr, ptr %__args.addr, align 8
  call void @_ZN2v819SharedValueConveyorC1EOS0_(ptr noundef nonnull align 8 dereferenceable(8) %0, ptr noundef nonnull align 8 dereferenceable(8) %1) #3
  ret void
}

; Function Attrs: mustprogress nounwind uwtable
define linkonce_odr dso_local void @_ZNSt22_Optional_payload_baseIN2v819SharedValueConveyorEE10_M_destroyEv(ptr noundef nonnull align 8 dereferenceable(9) %this) #4 comdat align 2 {
entry:
  %this.addr = alloca ptr, align 8
  store ptr %this, ptr %this.addr, align 8
  %this1 = load ptr, ptr %this.addr, align 8
  %_M_engaged = getelementptr inbounds %"struct.std::_Optional_payload_base", ptr %this1, i32 0, i32 1
  store i8 0, ptr %_M_engaged, align 8
  %_M_payload = getelementptr inbounds %"struct.std::_Optional_payload_base", ptr %this1, i32 0, i32 0
  call void @_ZN2v819SharedValueConveyorD1Ev(ptr noundef nonnull align 8 dereferenceable(8) %_M_payload) #3
  ret void
}

; Function Attrs: mustprogress nounwind uwtable
define linkonce_odr dso_local noundef nonnull align 8 dereferenceable(8) ptr @_ZNSt22_Optional_payload_baseIN2v819SharedValueConveyorEE6_M_getEv(ptr noundef nonnull align 8 dereferenceable(9) %this) #4 comdat align 2 {
entry:
  %this.addr = alloca ptr, align 8
  store ptr %this, ptr %this.addr, align 8
  %this1 = load ptr, ptr %this.addr, align 8
  %_M_payload = getelementptr inbounds %"struct.std::_Optional_payload_base", ptr %this1, i32 0, i32 0
  ret ptr %_M_payload
}

; Function Attrs: mustprogress nounwind uwtable
define linkonce_odr dso_local void @_ZNSt22_Optional_payload_baseIN2v819SharedValueConveyorEE12_M_constructIJS1_EEEvDpOT_(ptr noundef nonnull align 8 dereferenceable(9) %this, ptr noundef nonnull align 8 dereferenceable(8) %__args) #4 comdat align 2 {
entry:
  %this.addr = alloca ptr, align 8
  %__args.addr = alloca ptr, align 8
  store ptr %this, ptr %this.addr, align 8
  store ptr %__args, ptr %__args.addr, align 8
  %this1 = load ptr, ptr %this.addr, align 8
  %_M_payload = getelementptr inbounds %"struct.std::_Optional_payload_base", ptr %this1, i32 0, i32 0
  %0 = load ptr, ptr %__args.addr, align 8
  call void @_ZSt10_ConstructIN2v819SharedValueConveyorEJS1_EEvPT_DpOT0_(ptr noundef %_M_payload, ptr noundef nonnull align 8 dereferenceable(8) %0)
  %_M_engaged = getelementptr inbounds %"struct.std::_Optional_payload_base", ptr %this1, i32 0, i32 1
  store i8 1, ptr %_M_engaged, align 8
  ret void
}

; Function Attrs: mustprogress nounwind uwtable
define linkonce_odr dso_local void @_ZNSt22_Optional_payload_baseIN2v819SharedValueConveyorEE8_M_resetEv(ptr noundef nonnull align 8 dereferenceable(9) %this) #4 comdat align 2 {
entry:
  %this.addr = alloca ptr, align 8
  store ptr %this, ptr %this.addr, align 8
  %this1 = load ptr, ptr %this.addr, align 8
  %_M_engaged = getelementptr inbounds %"struct.std::_Optional_payload_base", ptr %this1, i32 0, i32 1
  %0 = load i8, ptr %_M_engaged, align 8
  %tobool = trunc i8 %0 to i1
  br i1 %tobool, label %if.then, label %if.end

if.then:                                          ; preds = %entry
  call void @_ZNSt22_Optional_payload_baseIN2v819SharedValueConveyorEE10_M_destroyEv(ptr noundef nonnull align 8 dereferenceable(9) %this1) #3
  br label %if.end

if.end:                                           ; preds = %if.then, %entry
  ret void
}

; Function Attrs: mustprogress nounwind uwtable
define linkonce_odr dso_local noundef nonnull align 8 dereferenceable(8) ptr @_ZNSt19_Optional_base_implIN2v819SharedValueConveyorESt14_Optional_baseIS1_Lb0ELb0EEE6_M_getEv(ptr noundef nonnull align 1 dereferenceable(1) %this) #4 comdat align 2 {
entry:
  %this.addr = alloca ptr, align 8
  store ptr %this, ptr %this.addr, align 8
  %this1 = load ptr, ptr %this.addr, align 8
  br label %do.body

do.body:                                          ; preds = %entry
  br label %do.end

do.end:                                           ; preds = %do.body
  %_M_payload = getelementptr inbounds %"struct.std::_Optional_base", ptr %this1, i32 0, i32 0
  %call = call noundef nonnull align 8 dereferenceable(8) ptr @_ZNSt22_Optional_payload_baseIN2v819SharedValueConveyorEE6_M_getEv(ptr noundef nonnull align 8 dereferenceable(9) %_M_payload) #3
  ret ptr %call
}

; Function Attrs: mustprogress nounwind uwtable
define linkonce_odr dso_local void @_ZNSt19_Optional_base_implIN2v819SharedValueConveyorESt14_Optional_baseIS1_Lb0ELb0EEE12_M_constructIJS1_EEEvDpOT_(ptr noundef nonnull align 1 dereferenceable(1) %this, ptr noundef nonnull align 8 dereferenceable(8) %__args) #4 comdat align 2 {
entry:
  %this.addr = alloca ptr, align 8
  %__args.addr = alloca ptr, align 8
  store ptr %this, ptr %this.addr, align 8
  store ptr %__args, ptr %__args.addr, align 8
  %this1 = load ptr, ptr %this.addr, align 8
  %_M_payload = getelementptr inbounds %"struct.std::_Optional_base", ptr %this1, i32 0, i32 0
  %0 = load ptr, ptr %__args.addr, align 8
  call void @_ZNSt22_Optional_payload_baseIN2v819SharedValueConveyorEE12_M_constructIJS1_EEEvDpOT_(ptr noundef nonnull align 8 dereferenceable(9) %_M_payload, ptr noundef nonnull align 8 dereferenceable(8) %0) #3
  ret void
}

; Function Attrs: mustprogress nounwind uwtable
define linkonce_odr dso_local void @_ZNSt19_Optional_base_implIN2v819SharedValueConveyorESt14_Optional_baseIS1_Lb0ELb0EEE8_M_resetEv(ptr noundef nonnull align 1 dereferenceable(1) %this) #4 comdat align 2 {
entry:
  %this.addr = alloca ptr, align 8
  store ptr %this, ptr %this.addr, align 8
  %this1 = load ptr, ptr %this.addr, align 8
  %_M_payload = getelementptr inbounds %"struct.std::_Optional_base", ptr %this1, i32 0, i32 0
  call void @_ZNSt22_Optional_payload_baseIN2v819SharedValueConveyorEE8_M_resetEv(ptr noundef nonnull align 8 dereferenceable(9) %_M_payload) #3
  ret void
}

; Function Attrs: mustprogress nounwind uwtable
define linkonce_odr dso_local noundef nonnull align 8 dereferenceable(8) ptr @_ZNSt8optionalIN2v819SharedValueConveyorEE7emplaceIJS1_EEENSt9enable_ifIX18is_constructible_vIS1_DpT_EERS1_E4typeEDpOS5_(ptr noundef nonnull align 8 dereferenceable(16) %this, ptr noundef nonnull align 8 dereferenceable(8) %__args) #4 comdat align 2 {
entry:
  %this.addr = alloca ptr, align 8
  %__args.addr = alloca ptr, align 8
  store ptr %this, ptr %this.addr, align 8
  store ptr %__args, ptr %__args.addr, align 8
  %this1 = load ptr, ptr %this.addr, align 8
  call void @_ZNSt19_Optional_base_implIN2v819SharedValueConveyorESt14_Optional_baseIS1_Lb0ELb0EEE8_M_resetEv(ptr noundef nonnull align 1 dereferenceable(1) %this1) #3
  %0 = load ptr, ptr %__args.addr, align 8
  call void @_ZNSt19_Optional_base_implIN2v819SharedValueConveyorESt14_Optional_baseIS1_Lb0ELb0EEE12_M_constructIJS1_EEEvDpOT_(ptr noundef nonnull align 1 dereferenceable(1) %this1, ptr noundef nonnull align 8 dereferenceable(8) %0) #3
  %call = call noundef nonnull align 8 dereferenceable(8) ptr @_ZNSt19_Optional_base_implIN2v819SharedValueConveyorESt14_Optional_baseIS1_Lb0ELb0EEE6_M_getEv(ptr noundef nonnull align 1 dereferenceable(1) %this1) #3
  ret ptr %call
}

; Function Attrs: mustprogress nounwind uwtable
define dso_local void @_ZN4node6worker7Message24AdoptSharedValueConveyorEON2v819SharedValueConveyorE(ptr noundef nonnull align 8 dereferenceable(136) %this, ptr noundef nonnull align 8 dereferenceable(8) %conveyor) #4 align 2 {
entry:
  %this.addr = alloca ptr, align 8
  %conveyor.addr = alloca ptr, align 8
  store ptr %this, ptr %this.addr, align 8
  store ptr %conveyor, ptr %conveyor.addr, align 8
  %this1 = load ptr, ptr %this.addr, align 8
  %shared_value_conveyor_ = getelementptr inbounds %"class.node::worker::Message", ptr %this1, i32 0, i32 6
  %0 = load ptr, ptr %conveyor.addr, align 8
  %call = call noundef nonnull align 8 dereferenceable(8) ptr @_ZNSt8optionalIN2v819SharedValueConveyorEE7emplaceIJS1_EEENSt9enable_ifIX18is_constructible_vIS1_DpT_EERS1_E4typeEDpOS5_(ptr noundef nonnull align 8 dereferenceable(16) %shared_value_conveyor_, ptr noundef nonnull align 8 dereferenceable(8) %0) #3
  ret void
}

; Function Attrs: mustprogress nounwind uwtable
define internal noundef zeroext i1 @_ZN4node6worker12_GLOBAL__N_118SerializerDelegate24AdoptSharedValueConveyorEPN2v87IsolateEONS3_19SharedValueConveyorE(ptr noundef nonnull align 8 dereferenceable(96) %this, ptr noundef %isolate, ptr noundef nonnull align 8 dereferenceable(8) %conveyor) unnamed_addr #4 align 2 {
entry:
  %this.addr = alloca ptr, align 8
  %isolate.addr = alloca ptr, align 8
  %conveyor.addr = alloca ptr, align 8
  store ptr %this, ptr %this.addr, align 8
  store ptr %isolate, ptr %isolate.addr, align 8
  store ptr %conveyor, ptr %conveyor.addr, align 8
  %this1 = load ptr, ptr %this.addr, align 8
  %msg_ = getelementptr inbounds %"class.node::worker::(anonymous namespace)::SerializerDelegate", ptr %this1, i32 0, i32 4
  %0 = load ptr, ptr %msg_, align 8
  %1 = load ptr, ptr %conveyor.addr, align 8
  call void @_ZN4node6worker7Message24AdoptSharedValueConveyorEON2v819SharedValueConveyorE(ptr noundef nonnull align 8 dereferenceable(136) %0, ptr noundef nonnull align 8 dereferenceable(8) %1)
  ret i1 true
}