; Function Attrs: mustprogress nounwind uwtable
define internal noundef zeroext i1 @_ZN4node6worker12_GLOBAL__N_118SerializerDelegate24AdoptSharedValueConveyorEPN2v87IsolateEONS3_19SharedValueConveyorE(ptr nocapture noundef nonnull readonly align 8 dereferenceable(96) %this, ptr nocapture readnone %isolate, ptr noundef nonnull align 8 dereferenceable(8) %conveyor) unnamed_addr #6 align 2 {
entry:
  %msg_ = getelementptr inbounds i8, ptr %this, i64 32
  %0 = load ptr, ptr %msg_, align 8
  %shared_value_conveyor_.i = getelementptr inbounds i8, ptr %0, i64 120
  %_M_engaged.i.i.i.i = getelementptr inbounds i8, ptr %0, i64 128
  %1 = load i8, ptr %_M_engaged.i.i.i.i, align 8
  %2 = and i8 %1, 1
  %tobool.not.i.i.i.i = icmp eq i8 %2, 0
  br i1 %tobool.not.i.i.i.i, label %_ZN4node6worker7Message24AdoptSharedValueConveyorEON2v819SharedValueConveyorE.exit, label %if.then.i.i.i.i

if.then.i.i.i.i:                                  ; preds = %entry
  store i8 0, ptr %_M_engaged.i.i.i.i, align 8
  tail call void @_ZN2v819SharedValueConveyorD1Ev(ptr noundef nonnull align 8 dereferenceable(8) %shared_value_conveyor_.i) #26
  br label %_ZN4node6worker7Message24AdoptSharedValueConveyorEON2v819SharedValueConveyorE.exit

_ZN4node6worker7Message24AdoptSharedValueConveyorEON2v819SharedValueConveyorE.exit: ; preds = %entry, %if.then.i.i.i.i
  tail call void @_ZN2v819SharedValueConveyorC1EOS0_(ptr noundef nonnull align 8 dereferenceable(8) %shared_value_conveyor_.i, ptr noundef nonnull align 8 dereferenceable(8) %conveyor) #26
  store i8 1, ptr %_M_engaged.i.i.i.i, align 8
  ret i1 true
}